target datalayout = "e-m:e-p270:32:32-p271:32:32-p272:64:64-i64:64-i128:128-f80:128-n8:16:32:64-S128"
target triple = "x86_64-pc-linux-gnu"

%struct.ImGuiStorage = type { %struct.ImVector.2 }
%struct.ImVector.2 = type { i32, i32, ptr }
%struct.ImGuiSelectionBasicStorage = type { i32, i8, ptr, ptr, i32, %struct.ImGuiStorage }

; Function Attrs: inlinehint mustprogress uwtable
define linkonce_odr void @_ZN8ImVectorI16ImGuiStoragePairE7reserveEi(ptr noundef nonnull align 8 dereferenceable(16) %0, i32 noundef %1) #11 comdat align 2 {
  %3 = alloca ptr, align 8
  %4 = alloca i32, align 4
  %5 = alloca ptr, align 8
  store ptr %0, ptr %3, align 8, !tbaa !745
  store i32 %1, ptr %4, align 4, !tbaa !8
  %6 = load ptr, ptr %3, align 8
  %7 = load i32, ptr %4, align 4, !tbaa !8
  %8 = getelementptr inbounds nuw %struct.ImVector.2, ptr %6, i32 0, i32 1
  %9 = load i32, ptr %8, align 4, !tbaa !747
  %10 = icmp sle i32 %7, %9
  br i1 %10, label %11, label %12

11:                                               ; preds = %2
  br label %35

12:                                               ; preds = %2
  call void @llvm.lifetime.start.p0(i64 8, ptr %5) #17
  %13 = load i32, ptr %4, align 4, !tbaa !8
  %14 = sext i32 %13 to i64
  %15 = mul i64 %14, 16
  %16 = call noundef ptr @_ZN5ImGui8MemAllocEm(i64 noundef %15)
  store ptr %16, ptr %5, align 8, !tbaa !750
  %17 = getelementptr inbounds nuw %struct.ImVector.2, ptr %6, i32 0, i32 2
  %18 = load ptr, ptr %17, align 8, !tbaa !749
  %19 = icmp ne ptr %18, null
  br i1 %19, label %20, label %30

20:                                               ; preds = %12
  %21 = load ptr, ptr %5, align 8, !tbaa !750
  %22 = getelementptr inbounds nuw %struct.ImVector.2, ptr %6, i32 0, i32 2
  %23 = load ptr, ptr %22, align 8, !tbaa !749
  %24 = getelementptr inbounds nuw %struct.ImVector.2, ptr %6, i32 0, i32 0
  %25 = load i32, ptr %24, align 8, !tbaa !748
  %26 = sext i32 %25 to i64
  %27 = mul i64 %26, 16
  call void @llvm.memcpy.p0.p0.i64(ptr align 8 %21, ptr align 8 %23, i64 %27, i1 false)
  %28 = getelementptr inbounds nuw %struct.ImVector.2, ptr %6, i32 0, i32 2
  %29 = load ptr, ptr %28, align 8, !tbaa !749
  call void @_ZN5ImGui7MemFreeEPv(ptr noundef %29)
  br label %30

30:                                               ; preds = %20, %12
  %31 = load ptr, ptr %5, align 8, !tbaa !750
  %32 = getelementptr inbounds nuw %struct.ImVector.2, ptr %6, i32 0, i32 2
  store ptr %31, ptr %32, align 8, !tbaa !749
  %33 = load i32, ptr %4, align 4, !tbaa !8
  %34 = getelementptr inbounds nuw %struct.ImVector.2, ptr %6, i32 0, i32 1
  store i32 %33, ptr %34, align 4, !tbaa !747
  call void @llvm.lifetime.end.p0(i64 8, ptr %5) #17
  br label %35

35:                                               ; preds = %30, %11
  ret void
}

; Function Attrs: inlinehint mustprogress nounwind uwtable
define linkonce_odr noundef i32 @_ZNK8ImVectorI16ImGuiStoragePairE14_grow_capacityEi(ptr noundef nonnull align 8 dereferenceable(16) %0, i32 noundef %1) #2 comdat align 2 {
  %3 = alloca ptr, align 8
  %4 = alloca i32, align 4
  %5 = alloca i32, align 4
  store ptr %0, ptr %3, align 8, !tbaa !745
  store i32 %1, ptr %4, align 4, !tbaa !8
  %6 = load ptr, ptr %3, align 8
  call void @llvm.lifetime.start.p0(i64 4, ptr %5) #17
  %7 = getelementptr inbounds nuw %struct.ImVector.2, ptr %6, i32 0, i32 1
  %8 = load i32, ptr %7, align 4, !tbaa !747
  %9 = icmp ne i32 %8, 0
  br i1 %9, label %10, label %17

10:                                               ; preds = %2
  %11 = getelementptr inbounds nuw %struct.ImVector.2, ptr %6, i32 0, i32 1
  %12 = load i32, ptr %11, align 4, !tbaa !747
  %13 = getelementptr inbounds nuw %struct.ImVector.2, ptr %6, i32 0, i32 1
  %14 = load i32, ptr %13, align 4, !tbaa !747
  %15 = sdiv i32 %14, 2
  %16 = add nsw i32 %12, %15
  br label %18

17:                                               ; preds = %2
  br label %18

18:                                               ; preds = %17, %10
  %19 = phi i32 [ %16, %10 ], [ 8, %17 ]
  store i32 %19, ptr %5, align 4, !tbaa !8
  %20 = load i32, ptr %5, align 4, !tbaa !8
  %21 = load i32, ptr %4, align 4, !tbaa !8
  %22 = icmp sgt i32 %20, %21
  br i1 %22, label %23, label %25

23:                                               ; preds = %18
  %24 = load i32, ptr %5, align 4, !tbaa !8
  br label %27

25:                                               ; preds = %18
  %26 = load i32, ptr %4, align 4, !tbaa !8
  br label %27

27:                                               ; preds = %25, %23
  %28 = phi i32 [ %24, %23 ], [ %26, %25 ]
  call void @llvm.lifetime.end.p0(i64 4, ptr %5) #17
  ret i32 %28
}

; Function Attrs: inlinehint mustprogress uwtable
define linkonce_odr void @_ZN8ImVectorI16ImGuiStoragePairE6resizeEi(ptr noundef nonnull align 8 dereferenceable(16) %0, i32 noundef %1) #11 comdat align 2 {
  %3 = alloca ptr, align 8
  %4 = alloca i32, align 4
  store ptr %0, ptr %3, align 8, !tbaa !745
  store i32 %1, ptr %4, align 4, !tbaa !8
  %5 = load ptr, ptr %3, align 8
  %6 = load i32, ptr %4, align 4, !tbaa !8
  %7 = getelementptr inbounds nuw %struct.ImVector.2, ptr %5, i32 0, i32 1
  %8 = load i32, ptr %7, align 4, !tbaa !747
  %9 = icmp sgt i32 %6, %8
  br i1 %9, label %10, label %13

10:                                               ; preds = %2
  %11 = load i32, ptr %4, align 4, !tbaa !8
  %12 = call noundef i32 @_ZNK8ImVectorI16ImGuiStoragePairE14_grow_capacityEi(ptr noundef nonnull align 8 dereferenceable(16) %5, i32 noundef %11)
  call void @_ZN8ImVectorI16ImGuiStoragePairE7reserveEi(ptr noundef nonnull align 8 dereferenceable(16) %5, i32 noundef %12)
  br label %13

13:                                               ; preds = %10, %2
  %14 = load i32, ptr %4, align 4, !tbaa !8
  %15 = getelementptr inbounds nuw %struct.ImVector.2, ptr %5, i32 0, i32 0
  store i32 %14, ptr %15, align 8, !tbaa !748
  ret void
}

; Function Attrs: mustprogress uwtable
define void @_ZN26ImGuiSelectionBasicStorage5ClearEv(ptr noundef nonnull align 8 dereferenceable(48) %0) #9 align 2 {
  %2 = alloca ptr, align 8
  store ptr %0, ptr %2, align 8, !tbaa !737
  %3 = load ptr, ptr %2, align 8
  %4 = getelementptr inbounds nuw %struct.ImGuiSelectionBasicStorage, ptr %3, i32 0, i32 0
  store i32 0, ptr %4, align 8, !tbaa !739
  %5 = getelementptr inbounds nuw %struct.ImGuiSelectionBasicStorage, ptr %3, i32 0, i32 4
  store i32 1, ptr %5, align 8, !tbaa !744
  %6 = getelementptr inbounds nuw %struct.ImGuiSelectionBasicStorage, ptr %3, i32 0, i32 5
  %7 = getelementptr inbounds nuw %struct.ImGuiStorage, ptr %6, i32 0, i32 0
  call void @_ZN8ImVectorI16ImGuiStoragePairE6resizeEi(ptr noundef nonnull align 8 dereferenceable(16) %7, i32 noundef 0)
  ret void
}