; Function Attrs: mustprogress uwtable
define void @_ZN26ImGuiSelectionBasicStorage5ClearEv(ptr noundef nonnull align 8 captures(none) dereferenceable(48) initializes((0, 4), (24, 28)) %0) local_unnamed_addr #6 align 2 {
  store i32 0, ptr %0, align 8, !tbaa !654
  %2 = getelementptr inbounds nuw i8, ptr %0, i64 24
  store i32 1, ptr %2, align 8, !tbaa !659
  %3 = getelementptr inbounds nuw i8, ptr %0, i64 32
  %4 = getelementptr inbounds nuw i8, ptr %0, i64 36
  %5 = load i32, ptr %4, align 4, !tbaa !660
  %6 = icmp slt i32 %5, 0
  br i1 %6, label %7, label %_ZN8ImVectorI16ImGuiStoragePairE6resizeEi.exit

7:                                                ; preds = %1
  %8 = tail call noundef ptr @_ZN5ImGui8MemAllocEm(i64 noundef 0)
  %9 = getelementptr inbounds nuw i8, ptr %0, i64 40
  %10 = load ptr, ptr %9, align 8, !tbaa !661
  %.not6.i.i = icmp eq ptr %10, null
  br i1 %.not6.i.i, label %16, label %11

11:                                               ; preds = %7
  %12 = load i32, ptr %3, align 8, !tbaa !662
  %13 = sext i32 %12 to i64
  %14 = shl nsw i64 %13, 4
  tail call void @llvm.memcpy.p0.p0.i64(ptr align 8 %8, ptr nonnull align 8 %10, i64 %14, i1 false)
  %15 = load ptr, ptr %9, align 8, !tbaa !661
  tail call void @_ZN5ImGui7MemFreeEPv(ptr noundef %15)
  br label %16

16:                                               ; preds = %11, %7
  store ptr %8, ptr %9, align 8, !tbaa !661
  store i32 0, ptr %4, align 4, !tbaa !660
  br label %_ZN8ImVectorI16ImGuiStoragePairE6resizeEi.exit

_ZN8ImVectorI16ImGuiStoragePairE6resizeEi.exit:   ; preds = %1, %16
  store i32 0, ptr %3, align 8, !tbaa !662
  ret void
}